Certificate:
    Data:
        Version: 1 (0x0)
        Serial Number: 16 (0x10)
        Signature Algorithm: ecdsa-with-SHA256
        Issuer: C=FR, CN=Pas Un Virus Sign
        Validity
            Not Before: May  1 14:57:53 2023 GMT
            Not After : Apr 29 14:57:53 2028 GMT
        Subject: CN=francis, C=AU, ST=Some-State, O=Internet Widgits Pty Ltd
        Subject Public Key Info:
            Public Key Algorithm: rsaEncryption
                Public-Key: (2048 bit)
                Modulus:
                    00:c8:ad:6e:66:c4:49:ca:0a:1b:f0:86:1e:44:93:
                    eb:90:29:91:75:05:f0:b5:5b:08:4d:7e:25:d0:d7:
                    00:98:49:ab:bb:b2:77:f3:f1:b4:72:ea:41:52:06:
                    b9:a7:fe:55:bc:d6:d0:b8:71:97:e5:75:c3:bc:6d:
                    52:b9:cb:8a:6d:a8:4d:00:f1:59:67:c4:aa:0b:59:
                    a5:fb:a1:96:4e:f4:b3:b8:24:6a:63:74:f0:46:ab:
                    22:c1:0c:54:14:ec:d1:dc:cd:84:d5:0e:36:3a:b9:
                    5b:55:b6:49:29:b5:f2:fa:6d:6c:e4:32:1f:27:2d:
                    f6:7e:4a:7a:89:77:f0:e7:ac:c7:0a:64:3c:3e:37:
                    d5:14:1c:39:03:99:5d:75:16:51:b9:ca:57:8b:7d:
                    ea:35:4b:50:f2:f4:cf:c7:51:0b:24:8f:85:d3:a0:
                    1a:31:b9:cb:0b:90:0f:68:35:98:ec:20:b8:b6:6b:
                    03:3a:a9:1b:2d:42:1d:1b:76:2f:1e:be:3c:44:cc:
                    41:e5:e4:29:61:63:51:81:6a:e4:58:a9:92:ff:a9:
                    4a:2d:b4:32:08:c6:7a:18:99:a8:5b:48:c3:f4:5a:
                    10:64:90:32:5e:fe:5d:25:37:f5:48:b5:f5:9c:d0:
                    63:9c:88:1d:d3:3c:86:11:61:41:60:7f:25:6e:65:
                    de:eb
                Exponent: 65537 (0x10001)
    Signature Algorithm: ecdsa-with-SHA256
    Signature Value:
        30:64:02:30:45:ba:c0:dc:b3:19:27:5b:17:1f:3f:88:84:17:
        f6:95:86:9c:4c:6d:31:c8:6d:50:50:59:ce:67:94:cf:92:46:
        f5:87:aa:2f:25:2a:42:99:f9:1c:7f:9a:1b:ca:c4:f1:02:30:
        5f:ee:8d:48:ca:9e:d0:b8:ba:82:2b:25:a2:0c:bd:09:43:55:
        88:b1:b3:6e:6c:b9:92:ed:ad:9c:e5:b0:ae:ba:b0:50:8d:8f:
        1c:0d:24:7c:9e:3f:d6:95:4c:71:ce:48
-----BEGIN CERTIFICATE-----
MIICUjCCAdkCARAwCgYIKoZIzj0EAwIwKTELMAkGA1UEBhMCRlIxGjAYBgNVBAMM
EVBhcyBVbiBWaXJ1cyBTaWduMB4XDTIzMDUwMTE0NTc1M1oXDTI4MDQyOTE0NTc1
M1owVzEQMA4GA1UEAwwHZnJhbmNpczELMAkGA1UEBhMCQVUxEzARBgNVBAgMClNv
bWUtU3RhdGUxITAfBgNVBAoMGEludGVybmV0IFdpZGdpdHMgUHR5IEx0ZDCCASIw
DQYJKoZIhvcNAQEBBQADggEPADCCAQoCggEBAMitbmbEScoKG/CGHkST65ApkXUF
8LVbCE1+JdDXAJhJq7uyd/PxtHLqQVIGuaf+VbzW0Lhxl+V1w7xtUrnLim2oTQDx
WWfEqgtZpfuhlk70s7gkamN08EarIsEMVBTs0dzNhNUONjq5W1W2SSm18vptbOQy
Hyct9n5Keol38OesxwpkPD431RQcOQOZXXUWUbnKV4t96jVLUPL0z8dRCySPhdOg
GjG5ywuQD2g1mOwguLZrAzqpGy1CHRt2Lx6+PETMQeXkKWFjUYFq5Fipkv+pSi20
MgjGehiZqFtIw/RaEGSQMl7+XSU39Ui19ZzQY5yIHdM8hhFhQWB/JW5l3usCAwEA
ATAKBggqhkjOPQQDAgNnADBkAjBFusDcsxknWxcfP4iEF/aVhpxMbTHIbVBQWc5n
lM+SRvWHqi8lKkKZ+Rx/mhvKxPECMF/ujUjKntC4uoIrJaIMvQlDVYixs25suZLt
rZzlsK66sFCNjxwNJHyeP9aVTHHOSA==
-----END CERTIFICATE-----
